(dp0
V\u8981
p1
I1
sV\u9000
p2
I2
sV\u6302
p3
I3
sV
p4
I4
sV\u6000
p5
I5
sV\u5408
p6
I6
sV\u5e8f
p7
I7
sV\u4e86
p8
I824
sV\u9614
p9
I8
sV\u5916
p10
I9
sV\u4f1a
p11
I10
sV\u6b22
p12
I11
sV\u672a
p13
I14
sV\u822c
p14
I15
sV\u7eaf
p15
I16
sV\u6cb3
p16
I17
sV\u9634
p17
I18
sV\u65b9
p18
I19
sV\u5c38
p19
I20
sV\u50bb
p20
I21
sV\u5f3a
p21
I22
sV\u7ebf
p22
I23
sV\u653e
p23
I24
sV\u89c1
p24
I25
sV\u94c3
p25
I26
sV\u5fc5
p26
I27
sV\u89d2
p27
I310
sV\u6bcd
p28
I28
sV\u7ecf
p29
I29
sV\u6d4e
p30
I30
sV\u79d1
p31
I31
sV\u6050
p32
I32
sV\u72d7
p33
I33
sV\u5458
p34
I34
sV\u8bdd
p35
I35
sV\u7edf
p36
I36
sV\u6362
p37
I37
sV\u67e5
p38
I38
sV\u9664
p39
I39
sV\u65e9
p40
I40
sV\u5468
p41
I41
sV\u58eb
p42
I42
sV\u7f6a
p43
I43
sV\u8bed
p44
I44
sV\u9a6c
p45
I45
sVp
p46
I46
sV\u6cf3
p47
I47
sV\u5ff5
p48
I48
sV\u6674
p49
I49
sV\u95f9
p50
I51
sV\u66ff
p51
I52
sV\u96c4
p52
I828
sV\u8c03
p53
I53
sV\u7684
p54
I54
sV\u5207
p55
I55
sV\u5986
p56
I56
sV\u5509
p57
I57
sV\u7eed
p58
I591
sV\u5199
p59
I460
sV\u6392
p60
I61
sV\u4e94
p61
I62
sV\u5217
p62
I63
sV\u9996
p63
I64
sV\u9519
p64
I65
sV\u786e
p65
I594
sV\u7075
p66
I849
sV\u661f
p67
I68
sV\u8c23
p68
I69
sV\u63a2
p69
I70
sV\u4e4b
p70
I743
sV\u67aa
p71
I71
sV\u6df3
p72
I72
sV\u662f
p73
I73
sV\u8131
p74
I74
sV\u68b0
p75
I75
sV\u8bb2
p76
I76
sV\u66b4
p77
I77
sV\u76f4
p78
I632
sV\u964b
p79
I212
sV\u563f
p80
I79
sV\u8bf7
p81
I81
sV\u7247
p82
I82
sV\u89c6
p83
I83
sV\u54c8
p84
I84
sV\u604b
p85
I85
sV\u5076
p86
I86
sV\u5acc
p87
I87
sV\u5f55
p88
I88
sV\u4ed4
p89
I89
sV\u5178
p90
I599
sV\u6559
p91
I92
sV\u62dc
p92
I94
sV\u6751
p93
I745
sV\u8be2
p94
I96
sV\u6765
p95
I97
sV\u7ea7
p96
I465
sV\u5267
p97
I99
sV\u79e6
p98
I100
sV\u706b
p99
I101
sV\u95ee
p100
I102
sV\u9971
p101
I103
sV\u58f0
p102
I104
sV\u5473
p103
I105
sV\u53f2
p104
I106
sV\u6ef4
p105
I80
sV\u6e7f
p106
I109
sV\u8001
p107
I161
sV\u5f04
p108
I113
sV\u7387
p109
I114
sV\u4e0a
p110
I115
sV\u540e
p111
I116
sV\u9891
p112
I117
sV\u533a
p113
I475
sV\u8212
p114
I118
sV\u5e95
p115
I119
sV\u6f14
p116
I120
sV\u7b97
p117
I121
sV\u6016
p118
I122
sV\u5e05
p119
I123
sV\u519b
p120
I124
sV\u5f00
p121
I765
sV\u641e
p122
I126
sV\u8da3
p123
I127
sV\u4f24
p124
I128
sV\u7528
p125
I130
sV\u4e2a
p126
I131
sV\u7b2c
p127
I132
sV\u8db3
p128
I133
sV\u6d88
p129
I134
sV\u59bb
p130
I135
sV\u4e3a
p131
I136
sV\u9b3c
p132
I137
sV\u5c3e
p133
I138
sV\u6761
p134
I749
sV\u7ef4
p135
I108
sV\u96c5
p136
I141
sV\u7bc7
p137
I142
sV\u62e8
p138
I754
sV\u62cd
p139
I143
sV\u6b4c
p140
I144
sV\u60d1
p141
I145
sV\u5565
p142
I318
sV\u665a
p143
I148
sV\u5c5e
p144
I150
sV\u6c11
p145
I151
sV\u673a
p146
I268
sV\u4ee5
p147
I153
sVf
p148
I154
sV\u8df3
p149
I155
sV\u8272
p150
I156
sV\u53f7
p151
I157
sVv
p152
I158
sV\u51fb
p153
I159
sV\u667a
p154
I160
sV\u6c0f
p155
I798
sV\u9001
p156
I284
sV\u8282
p157
I162
sV\u6e05
p158
I163
sV\u9f84
p159
I164
sV\u6307
p160
I165
sV\u6886
p161
I166
sV\u996d
p162
I167
sV\u7a0d
p163
I168
sV\u538c
p164
I169
sV\u5f0f
p165
I170
sV\u606f
p166
I757
sV\u5317
p167
I172
sV\u671f
p168
I173
sV\u6821
p169
I174
sV\u8d23
p170
I175
sV\u4e25
p171
I176
sV\u6b27
p172
I177
sV\u60a6
p173
I178
sV\u592b
p174
I179
sV\u7eaa
p175
I180
sV\u672f
p176
I181
sV1
p177
I182
sV\u51b0
p178
I183
sV\u9635
p179
I184
sV\u771f
p180
I185
sV\u91cf
p181
I795
sV\u5439
p182
I186
sV\u573e
p183
I187
sV\u4eba
p184
I188
sV\u7cbe
p185
I189
sV\u79c0
p186
I190
sV\u6c49
p187
I191
sV\u594b
p188
I299
sV\u4eca
p189
I301
sV\u624d
p190
I194
sV\u53cc
p191
I195
sV\u54ce
p192
I196
sV\u59d0
p193
I197
sV\u52d2
p194
I198
sV\u5e55
p195
I199
sV\u8fd4
p196
I200
sV\u5b57
p197
I335
sV\u6625
p198
I202
sV\u6eda
p199
I203
sV\u5e7b
p200
I763
sVa
p201
I205
sV\u91d1
p202
I206
sV\u6563
p203
I207
sV\u95fa
p204
I208
sV\u70e6
p205
I209
sV\u5de8
p206
I326
sV\u96ea
p207
I211
sV\u8f6f
p208
I213
sV\u79f0
p209
I214
sV\u5bfc
p210
I215
sV\u8a00
p211
I216
sV\u8d85
p212
I217
sV\u6700
p213
I218
sV\u4e08
p214
I219
sV\u518d
p215
I220
sV\u8f83
p216
I333
sV\u6210
p217
I222
sV\u5c11
p218
I613
sV\u6c14
p219
I223
sV\u5316
p220
I224
sV\u5618
p221
I225
sV\u529b
p222
I226
sV\u90ae
p223
I623
sV\u949f
p224
I227
sV\u7ba1
p225
I228
sV\u5220
p226
I229
sV\u5b63
p227
I864
sV\u6628
p228
I230
sV\u7206
p229
I231
sV\u5230
p230
I232
sV\u55b5
p231
I233
sV\u7434
p232
I234
sV\u8fb9
p233
I235
sV\u6e38
p234
I236
sV\u8d3a
p235
I237
sV\u683c
p236
I12
sV\u6cbf
p237
I239
sV\u973e
p238
I240
sV\u6240
p239
I241
sV\u6444
p240
I242
sV\u4e48
p241
I245
sV\u554a
p242
I246
sV\u91cd
p243
I247
sV\u884c
p244
I248
sV\u4f4e
p245
I249
sV\u53d1
p246
I250
sV\u5f62
p247
I488
sV\u5356
p248
I253
sV\u8fd9
p249
I254
sV\u77e5
p250
I255
sV\u660e
p251
I341
sV\u753b
p252
I630
sV\u54df
p253
I258
sV\u975e
p254
I259
sV\u4ee3
p255
I260
sV\u65e5
p256
I261
sV\u6c64
p257
I262
sV\u8b66
p258
I263
sV\u97e9
p259
I264
sV\u6668
p260
I265
sV\u6d6a
p261
I266
sV\u7f6e
p262
I267
sVh
p263
I492
sV\u677e
p264
I270
sV\u6280
p265
I271
sV\u4e03
p266
I272
sV\u5982
p267
I273
sV\u6807
p268
I274
sV\u5386
p269
I275
sV\u6709
p270
I276
sV\u73ed
p271
I277
sV\u7a0b
p272
I278
sV\u8d8a
p273
I279
sV\u590d
p274
I280
sV\u5c0f
p275
I281
sV\u7f8e
p276
I282
sV\u7b11
p277
I283
sV\u5192
p278
I285
sV\u4f19
p279
I286
sV\u6b21
p280
I287
sV\u52a0
p281
I288
sV\u7ca4
p282
I289
sV\u6027
p283
I290
sV\u522b
p284
I291
sV\u60ac
p285
I292
sV\u542f
p286
I293
sV\u5fae
p287
I294
sV\u9633
p288
I295
sV\u7535
p289
I296
sV\u6837
p290
I297
sV\u5bb6
p291
I298
sV\u514b
p292
I192
sV\u5e74
p293
I300
sV\u5f53
p294
I756
sV\u76ca
p295
I193
sV\u6545
p296
I302
sV\u5ef7
p297
I497
sV\u4f20
p298
I780
sV\u524d
p299
I305
sV\u624b
p300
I306
sV\u514d
p301
I307
sV\u5c4f
p302
I308
sV\u57ce
p303
I309
sV\u8bf4
p304
I652
sV\u79d2
p305
I90
sV\u53d6
p306
I311
sV\u9759
p307
I312
sV\u9ed8
p308
I313
sV\u725b
p309
I314
sV\u8fde
p310
I316
sV\u5361
p311
I317
sV\u7565
p312
I147
sVg
p313
I319
sV\u53e6
p314
I320
sV\u5f69
p315
I321
sV\u96e8
p316
I322
sV\u516d
p317
I323
sV\u4fee
p318
I324
sV\u62d2
p319
I325
sVw
p320
I327
sV\u5728
p321
I350
sV\u5f79
p322
I329
sV\u76f8
p323
I330
sV\u65fa
p324
I331
sV\u597d
p325
I332
sV\u5783
p326
I221
sV\u9002
p327
I334
sV\u5357
p328
I201
sV\u5987
p329
I336
sV\u5206
p330
I337
sV\u4e89
p331
I338
sV\u6708
p332
I339
sV\u8ba9
p333
I680
sV\u5403
p334
I66
sV\u4e0e
p335
I256
sV\u4f18
p336
I343
sV\u5c1a
p337
I344
sV\u989d
p338
I345
sV\u561e
p339
I346
sV\u52a1
p340
I347
sV\u82b1
p341
I353
sV\u8822
p342
I349
sV\u6728
p343
I328
sV\u5bab
p344
I351
sV\u5e2e
p345
I352
sV\u52b1
p346
I348
sV2
p347
I354
sV\u51b7
p348
I355
sV\u5236
p349
I356
sV\u53bb
p350
I357
sV\u793c
p351
I358
sV\u663e
p352
I359
sV\u6c61
p353
I643
sV\u5fc3
p354
I361
sV\u91c7
p355
I363
sV\u51e0
p356
I364
sV\u544a
p357
I365
sV\u65cf
p358
I366
sV\u4e4e
p359
I367
sV\u5b50
p360
I368
sV\u67d3
p361
I369
sV\u6cd5
p362
I370
sV\u7ed9
p363
I372
sV\u6bdb
p364
I373
sV\u8ddf
p365
I374
sVb
p366
I375
sV\u54e5
p367
I376
sV\u53eb
p368
I377
sV\u6c6a
p369
I362
sV\u70ed
p370
I379
sV\u516c
p371
I380
sV\u55ef
p372
I381
sV\u82f1
p373
I382
sVi
p374
I647
sV\u97f3
p375
I384
sVr
p376
I385
sV\u6574
p377
I386
sV\u95e8
p378
I210
sV\u96f9
p379
I388
sVk
p380
I603
sV\u8bfb
p381
I389
sV\u763e
p382
I390
sV\u80fd
p383
I391
sV\u767e
p384
I140
sV\u7b80
p385
I394
sV\u5f03
p386
I395
sV\u7eea
p387
I396
sV\u8584
p388
I397
sV\u4e09
p389
I398
sV\u5f88
p390
I399
sV\u540d
p391
I826
sV\u4e8e
p392
I400
sV\u6211
p393
I401
sV\u7236
p394
I402
sV\u9f13
p395
I403
sV\u5ab3
p396
I685
sV\u5594
p397
I404
sV\u88c5
p398
I789
sV\u68ee
p399
I648
sV\u601d
p400
I407
sV\u519c
p401
I244
sV\u751f
p402
I409
sV\u6a21
p403
I410
sV\u539a
p404
I511
sV\u827a
p405
I601
sV\u5927
p406
I412
sV\u6e29
p407
I413
sV\u732b
p408
I414
sV\u5a46
p409
I371
sV\u5173
p410
I650
sV\u4eae
p411
I417
sV\u7231
p412
I418
sV\u8bb0
p413
I419
sV\u60b2
p414
I420
sV\u5435
p415
I421
sV\u653f
p416
I423
sV\u96be
p417
I424
sV\u5947
p418
I426
sV\u904d
p419
I427
sV\u91cc
p420
I428
sV\u6d4f
p421
I429
sV\u63d0
p422
I431
sV\u9753
p423
I110
sV\u68d2
p424
I433
sV\u85cf
p425
I425
sV\u8fd8
p426
I435
sV\u864e
p427
I436
sV\u56de
p428
I437
sV\u6ed1
p429
I796
sV\u8e74
p430
I439
sV\u7167
p431
I440
sV\u9ae6
p432
I107
sV\u9669
p433
I442
sV\u54ea
p434
I443
sVm
p435
I444
sV\u76ee
p436
I445
sV\u53f0
p437
I446
sV\u5475
p438
I447
sV\u95f4
p439
I448
sV\u6b7b
p440
I450
sV\u8154
p441
I449
sV\u8083
p442
I452
sV\u6f02
p443
I453
sV\u548b
p444
I454
sV\u878d
p445
I455
sV\u7591
p446
I456
sV\u4ed9
p447
I457
sV\u6e2f
p448
I458
sV\u6697
p449
I459
sV\u9999
p450
I60
sV\u4e1c
p451
I461
sV\u529f
p452
I462
sV\u90a3
p453
I463
sV\u63a5
p454
I464
sV\u4ea7
p455
I98
sV\u532a
p456
I466
sV\u8033
p457
I520
sV\u72af
p458
I468
sV\u6389
p459
I661
sV\u51c0
p460
I470
sV\u6536
p461
I471
sV\u59b9
p462
I472
sV8
p463
I473
sV\u6cbb
p464
I474
sV\u633a
p465
I152
sV\u793e
p466
I476
sV\u5440
p467
I477
sV\u5546
p468
I478
sV\u89c9
p469
I479
sV\u6848
p470
I480
sV\u840c
p471
I663
sV\u8dd1
p472
I482
sV\u9752
p473
I483
sV\u8bd5
p474
I484
sV\u7adf
p475
I485
sV\u795e
p476
I486
sV\u6c60
p477
I487
sV\u9762
p478
I252
sV\u8be5
p479
I489
sV\u65e7
p480
I808
sV\u5566
p481
I491
sV\u8868
p482
I269
sV\u978b
p483
I493
sV\u4e01
p484
I821
sV\u77ed
p485
I494
sV\u60f3
p486
I495
sV\u5a74
p487
I496
sV\u96f7
p488
I303
sV\u8d76
p489
I498
sV\u7cfb
p490
I499
sV\u5ffd
p491
I500
sV\u62ff
p492
I501
sV\u6d01
p493
I502
sV\u5e94
p494
I392
sV\u8003
p495
I503
sV\u6076
p496
I504
sV\u4e07
p497
I505
sV\u7f16
p498
I669
sV\u670d
p499
I506
sV\u4e8c
p500
I507
sV\u620f
p501
I508
sV\u6218
p502
I671
sV\u9898
p503
I510
sV\u5b9a
p504
I411
sV\u671d
p505
I512
sV\u6e9c
p506
I513
sV\u9ec4
p507
I514
sV\u4e27
p508
I515
sV\u5929
p509
I516
sV\u4eac
p510
I517
sV\u5531
p511
I518
sV\u64b0
p512
I519
sV3
p513
I467
sV\u9605
p514
I771
sV\u6d41
p515
I521
sV\u54c0
p516
I522
sV\u5149
p517
I523
sV\u70c8
p518
I524
sV\u7a76
p519
I387
sV\u4f4d
p520
I525
sV\u91ce
p521
I526
sV\u9053
p522
I527
sV\u7d22
p523
I677
sV\u5355
p524
I529
sV\u7edc
p525
I530
sV\u8863
p526
I531
sV\u6b65
p527
I532
sV\u5de6
p528
I533
sV\u90e8
p529
I534
sV\u8c6b
p530
I535
sV\u53ea
p531
I536
sV\u6cf0
p532
I537
sVs
p533
I538
sV\u65f6
p534
I539
sV\u5979
p535
I540
sV\u4f55
p536
I541
sV\u7c7b
p537
I542
sS'<unk>'
p538
I879
sV\u7efc
p539
I543
sV\u7a7f
p540
I544
sV\u5c81
p541
I545
sV\u9500
p542
I546
sV\u5e02
p543
I548
sV\u5c06
p544
I393
sV\u6108
p545
I550
sV\u600e
p546
I552
sV\u9510
p547
I553
sV\u5f97
p548
I554
sV\u521a
p549
I555
sV\u5584
p550
I556
sV\u6ca1
p551
I557
sV\u62a5
p552
I558
sV\u77a7
p553
I559
sV\u5426
p554
I560
sV\u822a
p555
I766
sV\u5ead
p556
I562
sV\u672c
p557
I563
sV\u8baf
p558
I564
sV\u94b1
p559
I565
sV\u5fb7
p560
I566
sV\u70b9
p561
I567
sV\u523a
p562
I568
sV\u773c
p563
I813
sV\u6c34
p564
I570
sV\u54c1
p565
I571
sV\u8fc7
p566
I572
sV\u5148
p567
I129
sV\u65cb
p568
I574
sV\u6863
p569
I575
sV\u6652
p570
I576
sV\u9b54
p571
I577
sV\u5fd7
p572
I578
sV\u5e38
p573
I579
sV\u51c9
p574
I580
sV\u75db
p575
I581
sV\u4f5c
p576
I582
sV\u4ee4
p577
I583
sV\u5211
p578
I585
sV\u5662
p579
I586
sV\u7ae5
p580
I587
sV\u5466
p581
I588
sV\u59d1
p582
I589
sV\u5168
p583
I590
sV\u56ed
p584
I58
sV\u8f6c
p585
I59
sV\u53ef
p586
I593
sVn
p587
I67
sV\u6570
p588
I595
sV\u81f3
p589
I596
sV\u5e72
p590
I597
sV\u60f9
p591
I598
sV\u7978
p592
I91
sV\u95fb
p593
I600
sV\u7a7a
p594
I93
sV\u56fd
p595
I602
sV\u903c
p596
I238
sV\u707e
p597
I604
sV\u8c01
p598
I111
sV\u6682
p599
I606
sV\u9707
p600
I608
sV\u9009
p601
I609
sV\u5988
p602
I610
sV\u628a
p603
I611
sV\u4e0d
p604
I612
sV\u5411
p605
I251
sV\u9875
p606
I872
sV\u4f17
p607
I614
sV\u5019
p608
I615
sV\u6dee
p609
I616
sV\u5f1b
p610
I833
sV\u589e
p611
I617
sV\u55e8
p612
I618
sV\u8ba4
p613
I619
sV\u7d2b
p614
I620
sV\u6b66
p615
I713
sV\u4e2d
p616
I621
sV\u632f
p617
I622
sV\u699c
p618
I408
sV\u5c31
p619
I624
sV\u65b0
p620
I625
sV\u4eb2
p621
I626
sV\u7235
p622
I627
sV\u8d1f
p623
I628
sV\u6839
p624
I629
sV\u6d3b
p625
I257
sV\u4e3d
p626
I631
sV\u66f4
p627
I112
sV\u8bc4
p628
I633
sV\u4fa0
p629
I839
sV\u89c8
p630
I636
sV\u964d
p631
I637
sV\u98ce
p632
I638
sV\u6bd4
p633
I639
sV\u7f57
p634
I640
sV\u8d5b
p635
I641
sV\u98de
p636
I642
sV\u8c61
p637
I360
sV\u8bd1
p638
I644
sV\u53e4
p639
I645
sV\u54e6
p640
I378
sV\u6069
p641
I383
sV\u58ee
p642
I406
sV\u8471
p643
I649
sV\u5973
p644
I416
sV\u66f2
p645
I651
sV\u5e7f
p646
I243
sV\u63a8
p647
I844
sVy
p648
I654
sV\u5e7d
p649
I655
sV\u6f2b
p650
I845
sV\u8054
p651
I702
sV\u6781
p652
I658
sV\u4e00
p653
I659
sV\u6caa
p654
I415
sV\u5185
p655
I660
sV\u5b89
p656
I469
sV\u4e8b
p657
I662
sV\u540c
p658
I481
sV\u730e
p659
I664
sV\u8f91
p660
I665
sV\u5fd9
p661
I666
sV\u65e0
p662
I667
sV\u7814
p663
I668
sV\u6e58
p664
I634
sV\u5b99
p665
I670
sV\u5a18
p666
I509
sV\u4e9b
p667
I672
sV\u591a
p668
I673
sV\u641c
p669
I674
sV\u789f
p670
I675
sV\u6620
p671
I676
sV\u8d22
p672
I528
sV\u5b87
p673
I678
sV\u4f26
p674
I679
sV\u73a9
p675
I13
sV\u7406
p676
I549
sV\u65ad
p677
I682
sV\u542c
p678
I683
sV\u90fd
p679
I684
sV\u82b3
p680
I146
sV\u80b2
p681
I686
sV\u51b5
p682
I687
sV4
p683
I688
sV\u89c2
p684
I689
sV\u5bb9
p685
I690
sV\u7238
p686
I691
sV\u9ebb
p687
I692
sV\u793a
p688
I693
sV\u55bd
p689
I694
sV\u543c
p690
I695
sV\u592a
p691
I681
sV\u8bc9
p692
I696
sV\u7248
p693
I697
sV\u50cf
p694
I698
sV\u534e
p695
I699
sV\u8fd1
p696
I700
sV\u9650
p697
I646
sV\u8854
p698
I657
sV\u6258
p699
I704
sV\u76db
p700
I607
sV\u695a
p701
I706
sV\u98df
p702
I707
sV\u4fe1
p703
I708
sV\u6562
p704
I709
sV\u9886
p705
I710
sVd
p706
I711
sV\u8f66
p707
I712
sV\u5b66
p708
I422
sV\u95ed
p709
I714
sV\u770b
p710
I825
sV\u636e
p711
I715
sV\u4e70
p712
I50
sVt
p713
I717
sV\u5668
p714
I718
sV\u5bf9
p715
I719
sV\u547c
p716
I720
sV\u56db
p717
I705
sV\u9884
p718
I721
sV\u6309
p719
I722
sV\u4e0b
p720
I723
sV\u548c
p721
I724
sV\u6e90
p722
I725
sV\u5417
p723
I726
sV\u561b
p724
I727
sV\u9c9c
p725
I728
sV\u901f
p726
I729
sV\u5b9e
p727
I730
sV\u73b0
p728
I731
sV\u8c27
p729
I733
sV\u6670
p730
I716
sV\u52a8
p731
I735
sV\u5f31
p732
I736
sV\u8c37
p733
I737
sV\u4e3b
p734
I738
sV\u853d
p735
I739
sV\u8bbe
p736
I740
sV\u4ec0
p737
I741
sV\u6447
p738
I742
sV\u664b
p739
I78
sVc
p740
I744
sV\u7f51
p741
I95
sV\u6253
p742
I746
sV\u5457
p743
I747
sV\u9ad8
p744
I748
sV\u7761
p745
I139
sV\u5165
p746
I750
sV\u88e4
p747
I751
sV\u5389
p748
I752
sV\u5b69
p749
I753
sV\u6d3e
p750
I551
sV\u81ea
p751
I755
sV\u4f53
p752
I432
sVo
p753
I171
sV\u7bee
p754
I758
sV\u5f71
p755
I759
sV\u8273
p756
I760
sV\u5df2
p757
I761
sV\u8d28
p758
I762
sV\u567b
p759
I204
sV\u51fa
p760
I764
sV\u9700
p761
I315
sV\u6885
p762
I767
sV\u5904
p763
I768
sV\u6587
p764
I769
sV\u6606
p765
I770
sV\u5f8b
p766
I149
sV\u5e03
p767
I772
sV\u798f
p768
I773
sV\u4e91
p769
I774
sV\u6597
p770
I775
sV\u4e16
p771
I776
sV\u901a
p772
I777
sV\u821e
p773
I778
sV\u4ea1
p774
I779
sV\u7720
p775
I304
sV\u8c22
p776
I781
sV\u7b28
p777
I782
sV\u602a
p778
I783
sV\u64ad
p779
I784
sV\u522e
p780
I785
sV\u5730
p781
I786
sV\u5bb3
p782
I787
sV\u5934
p783
I788
sV\u4e50
p784
I701
sV\u7f13
p785
I592
sV\u4e61
p786
I863
sV\u60c5
p787
I405
sV\u9646
p788
I790
sV\u62c9
p789
I791
sV\u5348
p790
I792
sV\u54cd
p791
I793
sV\u754c
p792
I430
sV\u51cf
p793
I434
sV\u9ed1
p794
I438
sV\u6750
p795
I797
sV\u5954
p796
I342
sV\u6e56
p797
I799
sV\u5c65
p798
I800
sV\u8fdb
p799
I801
sV\u505a
p800
I802
sV\u84dd
p801
I803
sV\u51bb
p802
I804
sV\u8350
p803
I441
sV\u4f60
p804
I805
sV\u53e3
p805
I806
sV\u5462
p806
I807
sV\u5de7
p807
I490
sV\u4e66
p808
I809
sV\u62e9
p809
I810
sV\u5feb
p810
I811
sV\u806a
p811
I812
sV\u7269
p812
I868
sV\u53f3
p813
I815
sV\u9192
p814
I816
sV\u50f5
p815
I817
sV\u5174
p816
I818
sV\u7ffb
p817
I819
sV\u627e
p818
I820
sV\u5e01
p819
I547
sV\u5f80
p820
I822
sV\u8303
p821
I823
sV\u5e86
p822
I561
sV\u670b
p823
I569
sV\u8c0d
p824
I573
sV\u610f
p825
I827
sV\u4e11
p826
I732
sV\u6492
p827
I829
sV\u6015
p828
I830
sV\u6d17
p829
I831
sV\u6696
p830
I832
sV\u5c01
p831
I605
sV\u609a
p832
I834
sV\u559c
p833
I835
sV\u611f
p834
I836
sV\u529e
p835
I837
sV\u9e21
p836
I838
sV\u97a0
p837
I635
sV\u94a2
p838
I840
sV\u7d27
p839
I841
sV\u5ea6
p840
I842
sV\u5229
p841
I843
sV\u8ba8
p842
I653
sV\u672b
p843
I656
sV\u7537
p844
I846
sV\u6148
p845
I847
sV\u7239
p846
I848
sV\u8bb8
p847
I703
sV\u843d
p848
I850
sV\u513f
p849
I851
sV\u5df4
p850
I852
sV\u6fc0
p851
I853
sV\u7403
p852
I340
sV\u96c6
p853
I854
sV\u60ca
p854
I855
sV\u594f
p855
I856
sV\u8fd0
p856
I857
sV\u54d2
p857
I858
sV\u4ed6
p858
I859
sV\u7259
p859
I860
sV\u53d8
p860
I861
sV\u7ade
p861
I862
sV\u560e
p862
I584
sV\u6b63
p863
I794
sV\u6ce2
p864
I865
sVe
p865
I866
sV\u5427
p866
I867
sV\u5269
p867
I814
sV\u6c7d
p868
I877
sV\u4fa6
p869
I734
sV\u7834
p870
I870
sV\u64a4
p871
I871
sVu
p872
I125
sV\u8d77
p873
I873
sV\u4ef6
p874
I874
sV\u7279
p875
I875
sV\u8f7b
p876
I876
sV\u96fe
p877
I451
sV\u547d
p878
I869
sV\u897f
p879
I878
s.